; ModuleID = '4/86.c'
source_filename = "4/86.c"
target datalayout = "e-m:e-p270:32:32-p271:32:32-p272:64:64-i64:64-f80:128-n8:16:32:64-S128"
target triple = "x86_64-pc-linux-gnu"

@.str = private unnamed_addr constant [6 x i8] c"%d %d\00", align 1
@.str.1 = private unnamed_addr constant [3 x i8] c"%d\00", align 1
@.str.2 = private unnamed_addr constant [4 x i8] c"%d\0A\00", align 1

; Function Attrs: noinline nounwind uwtable
define dso_local void @main() #0 {
  %1 = alloca i32, align 4
  %2 = alloca i32, align 4
  %3 = alloca i32, align 4
  %4 = alloca i32, align 4
  %5 = alloca i32, align 4
  %6 = alloca i32, align 4
  %7 = alloca [1000 x i32*], align 16
  store i32 0, i32* %2, align 4
  br label %8

8:                                                ; preds = %17, %0
  %9 = load i32, i32* %2, align 4
  %10 = icmp slt i32 %9, 1000
  br i1 %10, label %11, label %20

11:                                               ; preds = %8
  %12 = call noalias i8* @malloc(i64 40000) #3
  %13 = bitcast i8* %12 to i32*
  %14 = load i32, i32* %2, align 4
  %15 = sext i32 %14 to i64
  %16 = getelementptr inbounds [1000 x i32*], [1000 x i32*]* %7, i64 0, i64 %15
  store i32* %13, i32** %16, align 8
  br label %17

17:                                               ; preds = %11
  %18 = load i32, i32* %2, align 4
  %19 = add nsw i32 %18, 1
  store i32 %19, i32* %2, align 4
  br label %8

20:                                               ; preds = %8
  %21 = call i32 (i8*, ...) @__isoc99_scanf(i8* getelementptr inbounds ([6 x i8], [6 x i8]* @.str, i64 0, i64 0), i32* %6, i32* %5)
  store i32 0, i32* %2, align 4
  br label %22

22:                                               ; preds = %45, %20
  %23 = load i32, i32* %2, align 4
  %24 = load i32, i32* %6, align 4
  %25 = icmp slt i32 %23, %24
  br i1 %25, label %26, label %48

26:                                               ; preds = %22
  store i32 0, i32* %3, align 4
  br label %27

27:                                               ; preds = %41, %26
  %28 = load i32, i32* %3, align 4
  %29 = load i32, i32* %5, align 4
  %30 = icmp slt i32 %28, %29
  br i1 %30, label %31, label %44

31:                                               ; preds = %27
  %32 = getelementptr inbounds [1000 x i32*], [1000 x i32*]* %7, i64 0, i64 0
  %33 = load i32, i32* %2, align 4
  %34 = sext i32 %33 to i64
  %35 = getelementptr inbounds i32*, i32** %32, i64 %34
  %36 = load i32*, i32** %35, align 8
  %37 = load i32, i32* %3, align 4
  %38 = sext i32 %37 to i64
  %39 = getelementptr inbounds i32, i32* %36, i64 %38
  %40 = call i32 (i8*, ...) @__isoc99_scanf(i8* getelementptr inbounds ([3 x i8], [3 x i8]* @.str.1, i64 0, i64 0), i32* %39)
  br label %41

41:                                               ; preds = %31
  %42 = load i32, i32* %3, align 4
  %43 = add nsw i32 %42, 1
  store i32 %43, i32* %3, align 4
  br label %27

44:                                               ; preds = %27
  br label %45

45:                                               ; preds = %44
  %46 = load i32, i32* %2, align 4
  %47 = add nsw i32 %46, 1
  store i32 %47, i32* %2, align 4
  br label %22

48:                                               ; preds = %22
  %49 = load i32, i32* %5, align 4
  %50 = load i32, i32* %6, align 4
  %51 = icmp sgt i32 %49, %50
  br i1 %51, label %52, label %137

52:                                               ; preds = %48
  store i32 0, i32* %2, align 4
  br label %53

53:                                               ; preds = %87, %52
  %54 = load i32, i32* %2, align 4
  %55 = load i32, i32* %5, align 4
  %56 = icmp slt i32 %54, %55
  br i1 %56, label %57, label %90

57:                                               ; preds = %53
  store i32 0, i32* %3, align 4
  br label %58

58:                                               ; preds = %83, %57
  %59 = load i32, i32* %3, align 4
  %60 = load i32, i32* %2, align 4
  %61 = icmp sle i32 %59, %60
  br i1 %61, label %62, label %86

62:                                               ; preds = %58
  %63 = load i32, i32* %3, align 4
  %64 = load i32, i32* %6, align 4
  %65 = icmp slt i32 %63, %64
  br i1 %65, label %66, label %81

66:                                               ; preds = %62
  %67 = getelementptr inbounds [1000 x i32*], [1000 x i32*]* %7, i64 0, i64 0
  %68 = load i32, i32* %3, align 4
  %69 = sext i32 %68 to i64
  %70 = getelementptr inbounds i32*, i32** %67, i64 %69
  %71 = load i32*, i32** %70, align 8
  %72 = load i32, i32* %2, align 4
  %73 = sext i32 %72 to i64
  %74 = getelementptr inbounds i32, i32* %71, i64 %73
  %75 = load i32, i32* %3, align 4
  %76 = sext i32 %75 to i64
  %77 = sub i64 0, %76
  %78 = getelementptr inbounds i32, i32* %74, i64 %77
  %79 = load i32, i32* %78, align 4
  %80 = call i32 (i8*, ...) @printf(i8* getelementptr inbounds ([4 x i8], [4 x i8]* @.str.2, i64 0, i64 0), i32 %79)
  br label %82

81:                                               ; preds = %62
  br label %86

82:                                               ; preds = %66
  br label %83

83:                                               ; preds = %82
  %84 = load i32, i32* %3, align 4
  %85 = add nsw i32 %84, 1
  store i32 %85, i32* %3, align 4
  br label %58

86:                                               ; preds = %81, %58
  br label %87

87:                                               ; preds = %86
  %88 = load i32, i32* %2, align 4
  %89 = add nsw i32 %88, 1
  store i32 %89, i32* %2, align 4
  br label %53

90:                                               ; preds = %53
  store i32 0, i32* %2, align 4
  br label %91

91:                                               ; preds = %133, %90
  %92 = load i32, i32* %2, align 4
  %93 = load i32, i32* %6, align 4
  %94 = icmp slt i32 %92, %93
  br i1 %94, label %95, label %136

95:                                               ; preds = %91
  store i32 0, i32* %3, align 4
  br label %96

96:                                               ; preds = %129, %95
  %97 = load i32, i32* %3, align 4
  %98 = load i32, i32* %6, align 4
  %99 = icmp slt i32 %97, %98
  br i1 %99, label %100, label %132

100:                                              ; preds = %96
  %101 = load i32, i32* %3, align 4
  %102 = load i32, i32* %2, align 4
  %103 = add nsw i32 %101, %102
  %104 = add nsw i32 %103, 1
  %105 = load i32, i32* %6, align 4
  %106 = icmp slt i32 %104, %105
  br i1 %106, label %107, label %127

107:                                              ; preds = %100
  %108 = getelementptr inbounds [1000 x i32*], [1000 x i32*]* %7, i64 0, i64 0
  %109 = load i32, i32* %3, align 4
  %110 = sext i32 %109 to i64
  %111 = getelementptr inbounds i32*, i32** %108, i64 %110
  %112 = load i32, i32* %2, align 4
  %113 = sext i32 %112 to i64
  %114 = getelementptr inbounds i32*, i32** %111, i64 %113
  %115 = getelementptr inbounds i32*, i32** %114, i64 1
  %116 = load i32*, i32** %115, align 8
  %117 = load i32, i32* %5, align 4
  %118 = sext i32 %117 to i64
  %119 = getelementptr inbounds i32, i32* %116, i64 %118
  %120 = load i32, i32* %3, align 4
  %121 = sext i32 %120 to i64
  %122 = sub i64 0, %121
  %123 = getelementptr inbounds i32, i32* %119, i64 %122
  %124 = getelementptr inbounds i32, i32* %123, i64 -1
  %125 = load i32, i32* %124, align 4
  %126 = call i32 (i8*, ...) @printf(i8* getelementptr inbounds ([4 x i8], [4 x i8]* @.str.2, i64 0, i64 0), i32 %125)
  br label %128

127:                                              ; preds = %100
  br label %132

128:                                              ; preds = %107
  br label %129

129:                                              ; preds = %128
  %130 = load i32, i32* %3, align 4
  %131 = add nsw i32 %130, 1
  store i32 %131, i32* %3, align 4
  br label %96

132:                                              ; preds = %127, %96
  br label %133

133:                                              ; preds = %132
  %134 = load i32, i32* %2, align 4
  %135 = add nsw i32 %134, 1
  store i32 %135, i32* %2, align 4
  br label %91

136:                                              ; preds = %91
  br label %222

137:                                              ; preds = %48
  store i32 0, i32* %2, align 4
  br label %138

138:                                              ; preds = %172, %137
  %139 = load i32, i32* %2, align 4
  %140 = load i32, i32* %5, align 4
  %141 = icmp slt i32 %139, %140
  br i1 %141, label %142, label %175

142:                                              ; preds = %138
  store i32 0, i32* %3, align 4
  br label %143

143:                                              ; preds = %168, %142
  %144 = load i32, i32* %3, align 4
  %145 = load i32, i32* %2, align 4
  %146 = icmp sle i32 %144, %145
  br i1 %146, label %147, label %171

147:                                              ; preds = %143
  %148 = load i32, i32* %3, align 4
  %149 = load i32, i32* %6, align 4
  %150 = icmp slt i32 %148, %149
  br i1 %150, label %151, label %166

151:                                              ; preds = %147
  %152 = getelementptr inbounds [1000 x i32*], [1000 x i32*]* %7, i64 0, i64 0
  %153 = load i32, i32* %3, align 4
  %154 = sext i32 %153 to i64
  %155 = getelementptr inbounds i32*, i32** %152, i64 %154
  %156 = load i32*, i32** %155, align 8
  %157 = load i32, i32* %2, align 4
  %158 = sext i32 %157 to i64
  %159 = getelementptr inbounds i32, i32* %156, i64 %158
  %160 = load i32, i32* %3, align 4
  %161 = sext i32 %160 to i64
  %162 = sub i64 0, %161
  %163 = getelementptr inbounds i32, i32* %159, i64 %162
  %164 = load i32, i32* %163, align 4
  %165 = call i32 (i8*, ...) @printf(i8* getelementptr inbounds ([4 x i8], [4 x i8]* @.str.2, i64 0, i64 0), i32 %164)
  br label %167

166:                                              ; preds = %147
  br label %171

167:                                              ; preds = %151
  br label %168

168:                                              ; preds = %167
  %169 = load i32, i32* %3, align 4
  %170 = add nsw i32 %169, 1
  store i32 %170, i32* %3, align 4
  br label %143

171:                                              ; preds = %166, %143
  br label %172

172:                                              ; preds = %171
  %173 = load i32, i32* %2, align 4
  %174 = add nsw i32 %173, 1
  store i32 %174, i32* %2, align 4
  br label %138

175:                                              ; preds = %138
  store i32 0, i32* %2, align 4
  br label %176

176:                                              ; preds = %218, %175
  %177 = load i32, i32* %2, align 4
  %178 = load i32, i32* %6, align 4
  %179 = icmp slt i32 %177, %178
  br i1 %179, label %180, label %221

180:                                              ; preds = %176
  store i32 0, i32* %3, align 4
  br label %181

181:                                              ; preds = %214, %180
  %182 = load i32, i32* %3, align 4
  %183 = load i32, i32* %5, align 4
  %184 = icmp slt i32 %182, %183
  br i1 %184, label %185, label %217

185:                                              ; preds = %181
  %186 = load i32, i32* %3, align 4
  %187 = load i32, i32* %2, align 4
  %188 = add nsw i32 %186, %187
  %189 = add nsw i32 %188, 1
  %190 = load i32, i32* %6, align 4
  %191 = icmp slt i32 %189, %190
  br i1 %191, label %192, label %212

192:                                              ; preds = %185
  %193 = getelementptr inbounds [1000 x i32*], [1000 x i32*]* %7, i64 0, i64 0
  %194 = load i32, i32* %3, align 4
  %195 = sext i32 %194 to i64
  %196 = getelementptr inbounds i32*, i32** %193, i64 %195
  %197 = load i32, i32* %2, align 4
  %198 = sext i32 %197 to i64
  %199 = getelementptr inbounds i32*, i32** %196, i64 %198
  %200 = getelementptr inbounds i32*, i32** %199, i64 1
  %201 = load i32*, i32** %200, align 8
  %202 = load i32, i32* %5, align 4
  %203 = sext i32 %202 to i64
  %204 = getelementptr inbounds i32, i32* %201, i64 %203
  %205 = load i32, i32* %3, align 4
  %206 = sext i32 %205 to i64
  %207 = sub i64 0, %206
  %208 = getelementptr inbounds i32, i32* %204, i64 %207
  %209 = getelementptr inbounds i32, i32* %208, i64 -1
  %210 = load i32, i32* %209, align 4
  %211 = call i32 (i8*, ...) @printf(i8* getelementptr inbounds ([4 x i8], [4 x i8]* @.str.2, i64 0, i64 0), i32 %210)
  br label %213

212:                                              ; preds = %185
  br label %217

213:                                              ; preds = %192
  br label %214

214:                                              ; preds = %213
  %215 = load i32, i32* %3, align 4
  %216 = add nsw i32 %215, 1
  store i32 %216, i32* %3, align 4
  br label %181

217:                                              ; preds = %212, %181
  br label %218

218:                                              ; preds = %217
  %219 = load i32, i32* %2, align 4
  %220 = add nsw i32 %219, 1
  store i32 %220, i32* %2, align 4
  br label %176

221:                                              ; preds = %176
  br label %222

222:                                              ; preds = %221, %136
  ret void
}

; Function Attrs: nounwind
declare dso_local noalias i8* @malloc(i64) #1

declare dso_local i32 @__isoc99_scanf(i8*, ...) #2

declare dso_local i32 @printf(i8*, ...) #2


!llvm.module.flags = !{!0}
!llvm.ident = !{!1}

!0 = !{i32 1, !"wchar_size", i32 4}
!1 = !{!"clang version 10.0.0-4ubuntu1 "}
